target datalayout = "e-m:e-p270:32:32-p271:32:32-p272:64:64-i64:64-i128:128-f80:128-n8:16:32:64-S128"
target triple = "x86_64-pc-linux-gnu"

%struct.private_ipv4_t = type { i32, i32 }
%struct.sockaddr = type { i16, [14 x i8] }
%struct.sockaddr_in = type { i16, i16, %struct.in_addr, [8 x i8] }
%struct.in_addr = type { i32 }

@private_ipv4 = internal global ptr null, align 8
@.str.7 = private unnamed_addr constant [61 x i8] c"unhandled sa_family %d passed to pmix_net_addr_isipv4public\0A\00", align 1

; Function Attrs: inlinehint nounwind uwtable
define internal i32 @__bswap_32(i32 noundef %0) #6 {
  %2 = alloca i32, align 4
  store i32 %0, ptr %2, align 4, !tbaa !15
  %3 = load i32, ptr %2, align 4, !tbaa !15
  %4 = and i32 %3, -16777216
  %5 = lshr i32 %4, 24
  %6 = load i32, ptr %2, align 4, !tbaa !15
  %7 = and i32 %6, 16711680
  %8 = lshr i32 %7, 8
  %9 = or i32 %5, %8
  %10 = load i32, ptr %2, align 4, !tbaa !15
  %11 = and i32 %10, 65280
  %12 = shl i32 %11, 8
  %13 = or i32 %9, %12
  %14 = load i32, ptr %2, align 4, !tbaa !15
  %15 = and i32 %14, 255
  %16 = shl i32 %15, 24
  %17 = or i32 %13, %16
  ret i32 %17
}

; Function Attrs: nounwind uwtable
define i32 @pmix_net_prefix2netmask(i32 noundef %0) #0 {
  %2 = alloca i32, align 4
  store i32 %0, ptr %2, align 4, !tbaa !15
  %3 = load i32, ptr %2, align 4, !tbaa !15
  %4 = shl i32 1, %3
  %5 = sub nsw i32 %4, 1
  %6 = load i32, ptr %2, align 4, !tbaa !15
  %7 = sub i32 32, %6
  %8 = shl i32 %5, %7
  %9 = call i32 @__bswap_32(i32 noundef %8)
  ret i32 %9
}

; Function Attrs: nounwind uwtable
define zeroext i1 @pmix_net_addr_isipv4public(ptr noundef %0) #0 {
  %2 = alloca i1, align 1
  %3 = alloca ptr, align 8
  %4 = alloca ptr, align 8
  %5 = alloca i32, align 4
  %6 = alloca i32, align 4
  store ptr %0, ptr %3, align 8, !tbaa !26
  %7 = load ptr, ptr %3, align 8, !tbaa !26
  %8 = getelementptr inbounds nuw %struct.sockaddr, ptr %7, i32 0, i32 0
  %9 = load i16, ptr %8, align 2, !tbaa !27
  %10 = zext i16 %9 to i32
  switch i32 %10, label %55 [
    i32 10, label %11
    i32 2, label %12
  ]

11:                                               ; preds = %1
  store i1 false, ptr %2, align 1
  br label %61

12:                                               ; preds = %1
  call void @llvm.lifetime.start.p0(i64 8, ptr %4) #10
  %13 = load ptr, ptr %3, align 8, !tbaa !26
  store ptr %13, ptr %4, align 8, !tbaa !30
  call void @llvm.lifetime.start.p0(i64 4, ptr %5) #10
  %14 = load ptr, ptr @private_ipv4, align 8, !tbaa !18
  %15 = icmp eq ptr null, %14
  br i1 %15, label %16, label %17

16:                                               ; preds = %12
  store i1 true, ptr %2, align 1
  store i32 1, ptr %6, align 4
  br label %52

17:                                               ; preds = %12
  store i32 0, ptr %5, align 4, !tbaa !15
  br label %18

18:                                               ; preds = %48, %17
  %19 = load ptr, ptr @private_ipv4, align 8, !tbaa !18
  %20 = load i32, ptr %5, align 4, !tbaa !15
  %21 = sext i32 %20 to i64
  %22 = getelementptr inbounds %struct.private_ipv4_t, ptr %19, i64 %21
  %23 = getelementptr inbounds nuw %struct.private_ipv4_t, ptr %22, i32 0, i32 0
  %24 = load i32, ptr %23, align 4, !tbaa !20
  %25 = icmp ne i32 %24, 0
  br i1 %25, label %26, label %51

26:                                               ; preds = %18
  %27 = load ptr, ptr @private_ipv4, align 8, !tbaa !18
  %28 = load i32, ptr %5, align 4, !tbaa !15
  %29 = sext i32 %28 to i64
  %30 = getelementptr inbounds %struct.private_ipv4_t, ptr %27, i64 %29
  %31 = getelementptr inbounds nuw %struct.private_ipv4_t, ptr %30, i32 0, i32 0
  %32 = load i32, ptr %31, align 4, !tbaa !20
  %33 = load ptr, ptr %4, align 8, !tbaa !30
  %34 = getelementptr inbounds nuw %struct.sockaddr_in, ptr %33, i32 0, i32 2
  %35 = getelementptr inbounds nuw %struct.in_addr, ptr %34, i32 0, i32 0
  %36 = load i32, ptr %35, align 4, !tbaa !32
  %37 = load ptr, ptr @private_ipv4, align 8, !tbaa !18
  %38 = load i32, ptr %5, align 4, !tbaa !15
  %39 = sext i32 %38 to i64
  %40 = getelementptr inbounds %struct.private_ipv4_t, ptr %37, i64 %39
  %41 = getelementptr inbounds nuw %struct.private_ipv4_t, ptr %40, i32 0, i32 1
  %42 = load i32, ptr %41, align 4, !tbaa !22
  %43 = call i32 @pmix_net_prefix2netmask(i32 noundef %42)
  %44 = and i32 %36, %43
  %45 = icmp eq i32 %32, %44
  br i1 %45, label %46, label %47

46:                                               ; preds = %26
  store i1 false, ptr %2, align 1
  store i32 1, ptr %6, align 4
  br label %52

47:                                               ; preds = %26
  br label %48

48:                                               ; preds = %47
  %49 = load i32, ptr %5, align 4, !tbaa !15
  %50 = add nsw i32 %49, 1
  store i32 %50, ptr %5, align 4, !tbaa !15
  br label %18, !llvm.loop !42

51:                                               ; preds = %18
  store i32 0, ptr %6, align 4
  br label %52

52:                                               ; preds = %51, %46, %16
  call void @llvm.lifetime.end.p0(i64 4, ptr %5) #10
  call void @llvm.lifetime.end.p0(i64 8, ptr %4) #10
  %53 = load i32, ptr %6, align 4
  switch i32 %53, label %63 [
    i32 0, label %54
    i32 1, label %61
  ]

54:                                               ; preds = %52
  store i1 true, ptr %2, align 1
  br label %61

55:                                               ; preds = %1
  %56 = load ptr, ptr %3, align 8, !tbaa !26
  %57 = getelementptr inbounds nuw %struct.sockaddr, ptr %56, i32 0, i32 0
  %58 = load i16, ptr %57, align 2, !tbaa !27
  %59 = zext i16 %58 to i32
  call void (i32, ptr, ...) @pmix_output(i32 noundef 0, ptr noundef @.str.7, i32 noundef %59)
  br label %60

60:                                               ; preds = %55
  store i1 false, ptr %2, align 1
  br label %61

61:                                               ; preds = %60, %54, %52, %11
  %62 = load i1, ptr %2, align 1
  ret i1 %62

63:                                               ; preds = %52
  unreachable
}