; Function Attrs: nounwind uwtable
define zeroext i1 @pmix_net_addr_isipv4public(ptr noundef readonly captures(none) %0) local_unnamed_addr #0 {
  %2 = load i16, ptr %0, align 2, !tbaa !22
  switch i16 %2, label %21 [
    i16 10, label %23
    i16 2, label %3
  ]

3:                                                ; preds = %1
  %4 = load ptr, ptr @private_ipv4, align 8, !tbaa !14
  %5 = icmp eq ptr %4, null
  br i1 %5, label %.loopexit, label %.preheader

.preheader:                                       ; preds = %3
  %6 = load i32, ptr %4, align 4, !tbaa !17
  %.not12 = icmp eq i32 %6, 0
  br i1 %.not12, label %.loopexit, label %.lr.ph

.lr.ph:                                           ; preds = %.preheader
  %7 = getelementptr inbounds nuw i8, ptr %0, i64 4
  %8 = load i32, ptr %7, align 4, !tbaa !25
  br label %12

9:                                                ; preds = %12
  %indvars.iv.next = add nuw nsw i64 %indvars.iv, 1
  %10 = getelementptr inbounds nuw %struct.private_ipv4_t, ptr %4, i64 %indvars.iv.next
  %11 = load i32, ptr %10, align 4, !tbaa !17
  %.not = icmp eq i32 %11, 0
  br i1 %.not, label %.loopexit, label %12, !llvm.loop !29

12:                                               ; preds = %.lr.ph, %9
  %indvars.iv = phi i64 [ 0, %.lr.ph ], [ %indvars.iv.next, %9 ]
  %13 = phi i32 [ %6, %.lr.ph ], [ %11, %9 ]
  %14 = getelementptr inbounds nuw %struct.private_ipv4_t, ptr %4, i64 %indvars.iv, i32 1
  %15 = load i32, ptr %14, align 4, !tbaa !19
  %notmask.i = shl nsw i32 -1, %15
  %16 = xor i32 %notmask.i, -1
  %17 = sub i32 32, %15
  %18 = shl i32 %16, %17
  %19 = tail call noundef i32 @llvm.bswap.i32(i32 %18)
  %20 = and i32 %19, %8
  %.not19.not = icmp ne i32 %13, %20
  br i1 %.not19.not, label %9, label %.loopexit

.loopexit:                                        ; preds = %12, %9, %.preheader, %3
  %.1 = phi i1 [ true, %3 ], [ undef, %.preheader ], [ false, %9 ], [ false, %12 ]
  %switch = phi i1 [ false, %3 ], [ true, %.preheader ], [ %.not19.not, %9 ], [ %.not19.not, %12 ]
  %spec.select = or i1 %.1, %switch
  br label %23

21:                                               ; preds = %1
  %22 = zext i16 %2 to i32
  tail call void (i32, ptr, ...) @pmix_output(i32 noundef 0, ptr noundef nonnull @.str.7, i32 noundef %22) #15
  br label %23

23:                                               ; preds = %.loopexit, %1, %21
  %.010 = phi i1 [ false, %21 ], [ false, %1 ], [ %spec.select, %.loopexit ]
  ret i1 %.010
}